; ModuleID = '54/128.c'
source_filename = "54/128.c"
target datalayout = "e-m:e-p270:32:32-p271:32:32-p272:64:64-i64:64-f80:128-n8:16:32:64-S128"
target triple = "x86_64-pc-linux-gnu"

@.str = private unnamed_addr constant [6 x i8] c"%d %d\00", align 1
@.str.1 = private unnamed_addr constant [5 x i8] c"%ld\0A\00", align 1

; Function Attrs: noinline nounwind uwtable
define dso_local i64 @power(i32 %0, i32 %1) #0 {
  %3 = alloca i32, align 4
  %4 = alloca i32, align 4
  %5 = alloca i32, align 4
  %6 = alloca i32, align 4
  store i32 %0, i32* %3, align 4
  store i32 %1, i32* %4, align 4
  store i32 1, i32* %6, align 4
  store i32 1, i32* %5, align 4
  br label %7

7:                                                ; preds = %15, %2
  %8 = load i32, i32* %5, align 4
  %9 = load i32, i32* %4, align 4
  %10 = icmp sle i32 %8, %9
  br i1 %10, label %11, label %18

11:                                               ; preds = %7
  %12 = load i32, i32* %3, align 4
  %13 = load i32, i32* %6, align 4
  %14 = mul nsw i32 %13, %12
  store i32 %14, i32* %6, align 4
  br label %15

15:                                               ; preds = %11
  %16 = load i32, i32* %5, align 4
  %17 = add nsw i32 %16, 1
  store i32 %17, i32* %5, align 4
  br label %7

18:                                               ; preds = %7
  %19 = load i32, i32* %6, align 4
  %20 = sext i32 %19 to i64
  ret i64 %20
}

; Function Attrs: noinline nounwind uwtable
define dso_local i32 @main() #0 {
  %1 = alloca i32, align 4
  %2 = alloca i32, align 4
  %3 = alloca i32, align 4
  %4 = alloca i64, align 8
  %5 = alloca i64, align 8
  %6 = alloca i64, align 8
  %7 = alloca i64, align 8
  store i32 0, i32* %1, align 4
  %8 = call i32 (i8*, ...) @__isoc99_scanf(i8* getelementptr inbounds ([6 x i8], [6 x i8]* @.str, i64 0, i64 0), i32* %2, i32* %3)
  %9 = load i32, i32* %2, align 4
  %10 = sub nsw i32 %9, 1
  %11 = load i32, i32* %2, align 4
  %12 = sub nsw i32 %11, 1
  %13 = call i64 @power(i32 %10, i32 %12)
  store i64 %13, i64* %6, align 8
  %14 = load i32, i32* %2, align 4
  %15 = load i32, i32* %2, align 4
  %16 = sub nsw i32 %15, 1
  %17 = call i64 @power(i32 %14, i32 %16)
  store i64 %17, i64* %7, align 8
  %18 = load i64, i64* %6, align 8
  %19 = load i32, i32* %3, align 4
  %20 = sext i32 %19 to i64
  %21 = sub nsw i64 %18, %20
  store i64 %21, i64* %5, align 8
  br label %22

22:                                               ; preds = %25, %0
  %23 = load i64, i64* %5, align 8
  %24 = icmp sle i64 %23, 0
  br i1 %24, label %25, label %29

25:                                               ; preds = %22
  %26 = load i64, i64* %6, align 8
  %27 = load i64, i64* %5, align 8
  %28 = add nsw i64 %27, %26
  store i64 %28, i64* %5, align 8
  br label %22

29:                                               ; preds = %22
  %30 = load i32, i32* %2, align 4
  %31 = sext i32 %30 to i64
  %32 = load i64, i64* %5, align 8
  %33 = load i32, i32* %3, align 4
  %34 = sext i32 %33 to i64
  %35 = add nsw i64 %32, %34
  %36 = load i64, i64* %6, align 8
  %37 = sdiv i64 %35, %36
  %38 = load i64, i64* %7, align 8
  %39 = mul nsw i64 %37, %38
  %40 = load i32, i32* %3, align 4
  %41 = sext i32 %40 to i64
  %42 = sub nsw i64 %39, %41
  %43 = mul nsw i64 %31, %42
  %44 = load i32, i32* %3, align 4
  %45 = sext i32 %44 to i64
  %46 = add nsw i64 %43, %45
  store i64 %46, i64* %4, align 8
  %47 = load i64, i64* %4, align 8
  %48 = call i32 (i8*, ...) @printf(i8* getelementptr inbounds ([5 x i8], [5 x i8]* @.str.1, i64 0, i64 0), i64 %47)
  ret i32 0
}

declare dso_local i32 @__isoc99_scanf(i8*, ...) #1

declare dso_local i32 @printf(i8*, ...) #1


!llvm.module.flags = !{!0}
!llvm.ident = !{!1}

!0 = !{i32 1, !"wchar_size", i32 4}
!1 = !{!"clang version 10.0.0-4ubuntu1 "}
